Certificate:
    Data:
        Version: 3 (0x2)
        Serial Number: 1 (0x1)
    Signature Algorithm: sha256WithRSAEncryption
        Issuer: CN=devcert
        Validity
            Not Before: Jun  6 05:31:01 2020 GMT
            Not After : Sep  9 05:31:01 2022 GMT
        Subject: CN=localhost
        Subject Public Key Info:
            Public Key Algorithm: rsaEncryption
                Public-Key: (2048 bit)
                Modulus:
                    00:a7:19:fe:76:29:ab:74:a2:2e:01:c4:4e:53:27:
                    af:d3:75:f6:89:75:9b:2a:71:c9:ce:13:59:43:34:
                    79:a6:98:99:fe:3f:e7:5b:9e:0c:68:b7:bf:61:71:
                    9e:bb:81:7c:cc:74:97:16:47:3a:ac:65:29:fd:14:
                    2e:95:6f:28:ff:11:e1:95:00:d3:1a:ef:c9:1d:3f:
                    16:20:a0:3a:85:4e:58:32:11:aa:9b:f5:bb:33:0b:
                    3f:83:cc:ee:e2:e0:37:64:1e:eb:02:8e:39:3a:fc:
                    d6:64:ca:db:3a:89:b4:85:46:aa:8a:90:56:13:47:
                    68:55:8a:bd:63:3c:e5:49:f1:de:ce:82:ba:5b:5b:
                    8f:56:9b:58:c7:f2:e9:ca:92:69:87:5d:78:00:f0:
                    c2:59:26:9d:d9:f2:b2:f2:31:fc:14:d7:d3:67:a1:
                    47:58:ed:b5:ed:c0:b3:77:e4:7f:45:15:c6:89:59:
                    55:d1:dd:ac:0f:c2:08:19:7b:a1:c4:a3:64:31:29:
                    3a:da:cf:24:54:cf:ff:71:b4:0e:5a:50:63:7a:2f:
                    70:67:e5:6c:82:08:3a:c2:9f:9a:5e:11:2c:f0:46:
                    40:42:54:2a:f3:98:92:39:2f:a6:9f:14:7d:6c:c3:
                    27:46:ea:12:ff:fb:22:2f:60:7a:f9:99:e1:19:d8:
                    e1:8b
                Exponent: 65537 (0x10001)
        X509v3 extensions:
            X509v3 Basic Constraints: critical
                CA:FALSE
            X509v3 Subject Key Identifier: 
                5C:35:D3:3B:D0:7D:DC:0E:65:E3:F7:63:C1:93:32:57:03:8E:EC:2B
            X509v3 Authority Key Identifier: 
                keyid:6A:AE:C0:43:CA:7E:71:B7:41:A3:BD:74:38:8D:7B:F3:0C:AB:EA:40
                DirName:/CN=devcert
                serial:E8:9C:83:2D:2E:9B:34:D6

            X509v3 Key Usage: critical
                Digital Signature, Key Encipherment
            X509v3 Extended Key Usage: 
                TLS Web Server Authentication
            X509v3 Subject Alternative Name: 
                DNS:localhost, DNS:*.localhost
    Signature Algorithm: sha256WithRSAEncryption
         22:25:d6:85:0c:89:ba:00:92:56:04:1e:49:65:d7:31:eb:b7:
         ac:19:59:4f:7a:e1:cf:35:9d:da:e0:23:9d:5d:86:87:78:c4:
         be:b6:77:ae:39:87:6e:51:68:87:f8:d3:4e:25:18:94:ce:90:
         13:fa:cb:40:a6:d2:5c:b7:37:14:3e:c5:b5:59:59:73:89:39:
         01:c0:bf:f6:77:aa:ce:88:c3:22:78:82:69:dd:4a:4c:a3:fe:
         74:9e:28:7e:3f:17:9a:5b:22:05:2d:11:92:79:34:85:46:09:
         d2:d6:2c:39:1a:35:90:38:b4:1c:b9:80:88:1d:d6:75:69:cd:
         e3:0a:93:69:b1:4f:d5:de:2d:24:08:8c:9c:08:5d:87:1b:6e:
         01:0c:8d:46:da:7b:65:14:00:11:18:0c:f9:dd:80:38:e8:1a:
         d0:ce:5d:49:00:77:ca:3a:8d:e2:15:92:1b:74:0e:58:1f:08:
         ab:1d:a5:12:48:0b:fa:1e:9b:76:98:63:f2:b6:ad:43:60:e6:
         d3:78:c7:45:48:c9:dd:04:d4:19:57:b9:6f:98:e8:3b:26:1c:
         ce:8c:30:d5:90:c6:ba:0d:f4:80:4b:41:ea:23:df:d9:cc:65:
         01:fb:48:0e:ee:a3:95:68:f6:a8:86:b9:0e:74:20:22:5c:09:
         70:73:78:74
-----BEGIN CERTIFICATE-----
MIIDXjCCAkagAwIBAgIBATANBgkqhkiG9w0BAQsFADASMRAwDgYDVQQDDAdkZXZj
ZXJ0MB4XDTIwMDYwNjA1MzEwMVoXDTIyMDkwOTA1MzEwMVowFDESMBAGA1UEAwwJ
bG9jYWxob3N0MIIBIjANBgkqhkiG9w0BAQEFAAOCAQ8AMIIBCgKCAQEApxn+dimr
dKIuAcROUyev03X2iXWbKnHJzhNZQzR5ppiZ/j/nW54MaLe/YXGeu4F8zHSXFkc6
rGUp/RQulW8o/xHhlQDTGu/JHT8WIKA6hU5YMhGqm/W7Mws/g8zu4uA3ZB7rAo45
OvzWZMrbOom0hUaqipBWE0doVYq9YzzlSfHezoK6W1uPVptYx/LpypJph114APDC
WSad2fKy8jH8FNfTZ6FHWO217cCzd+R/RRXGiVlV0d2sD8IIGXuhxKNkMSk62s8k
VM//cbQOWlBjei9wZ+Vsggg6wp+aXhEs8EZAQlQq85iSOS+mnxR9bMMnRuoS//si
L2B6+ZnhGdjhiwIDAQABo4G8MIG5MAwGA1UdEwEB/wQCMAAwHQYDVR0OBBYEFFw1
0zvQfdwOZeP3Y8GTMlcDjuwrMEIGA1UdIwQ7MDmAFGquwEPKfnG3QaO9dDiNe/MM
q+pAoRakFDASMRAwDgYDVQQDDAdkZXZjZXJ0ggkA6JyDLS6bNNYwDgYDVR0PAQH/
BAQDAgWgMBMGA1UdJQQMMAoGCCsGAQUFBwMBMCEGA1UdEQQaMBiCCWxvY2FsaG9z
dIILKi5sb2NhbGhvc3QwDQYJKoZIhvcNAQELBQADggEBACIl1oUMiboAklYEHkll
1zHrt6wZWU964c81ndrgI51dhod4xL62d645h25RaIf4004lGJTOkBP6y0Cm0ly3
NxQ+xbVZWXOJOQHAv/Z3qs6IwyJ4gmndSkyj/nSeKH4/F5pbIgUtEZJ5NIVGCdLW
LDkaNZA4tBy5gIgd1nVpzeMKk2mxT9XeLSQIjJwIXYcbbgEMjUbae2UUABEYDPnd
gDjoGtDOXUkAd8o6jeIVkht0DlgfCKsdpRJIC/oem3aYY/K2rUNg5tN4x0VIyd0E
1BlXuW+Y6DsmHM6MMNWQxroN9IBLQeoj39nMZQH7SA7uo5Vo9qiGuQ50ICJcCXBz
eHQ=
-----END CERTIFICATE-----
